; Function Attrs: nounwind uwtable
define dso_local i32 @_archive_entry_hardlink_l(ptr noundef %0, ptr noundef %1, ptr noundef %2, ptr noundef %3) local_unnamed_addr #0 {
  %5 = getelementptr inbounds nuw i8, ptr %0, i64 192
  %6 = load i32, ptr %5, align 8, !tbaa !31
  %7 = and i32 %6, 1
  %8 = icmp eq i32 %7, 0
  br i1 %8, label %9, label %10

9:                                                ; preds = %4
  store ptr null, ptr %1, align 8, !tbaa !57
  store i64 0, ptr %2, align 8, !tbaa !27
  br label %14

10:                                               ; preds = %4
  %11 = load ptr, ptr %0, align 8, !tbaa !25
  %12 = getelementptr inbounds nuw i8, ptr %0, i64 424
  %13 = tail call i32 @archive_mstring_get_mbs_l(ptr noundef %11, ptr noundef nonnull %12, ptr noundef %1, ptr noundef %2, ptr noundef %3) #21
  br label %14

14:                                               ; preds = %10, %9
  %.0 = phi i32 [ 0, %9 ], [ %13, %10 ]
  ret i32 %.0
}